
CanHacker.elf:     file format elf32-avr

Sections:
Idx Name          Size      VMA       LMA       File off  Algn
  0 .text         000000da  00000000  00000000  00000054  2**1
                  CONTENTS, ALLOC, LOAD, READONLY, CODE

Disassembly of section .text:

00000000 <__vectors>:
   0:	12 c0       	rjmp	.+36     	; 0x26 <__ctors_end>
   2:	19 c0       	rjmp	.+50     	; 0x36 <__bad_interrupt>
   4:	18 c0       	rjmp	.+48     	; 0x36 <__bad_interrupt>
   6:	17 c0       	rjmp	.+46     	; 0x36 <__bad_interrupt>
   8:	16 c0       	rjmp	.+44     	; 0x36 <__bad_interrupt>
   a:	15 c0       	rjmp	.+42     	; 0x36 <__bad_interrupt>
   c:	14 c0       	rjmp	.+40     	; 0x36 <__bad_interrupt>
   e:	13 c0       	rjmp	.+38     	; 0x36 <__bad_interrupt>
  10:	12 c0       	rjmp	.+36     	; 0x36 <__bad_interrupt>
  12:	11 c0       	rjmp	.+34     	; 0x36 <__bad_interrupt>
  14:	10 c0       	rjmp	.+32     	; 0x36 <__bad_interrupt>
  16:	0f c0       	rjmp	.+30     	; 0x36 <__bad_interrupt>
  18:	0e c0       	rjmp	.+28     	; 0x36 <__bad_interrupt>
  1a:	0d c0       	rjmp	.+26     	; 0x36 <__bad_interrupt>
  1c:	0c c0       	rjmp	.+24     	; 0x36 <__bad_interrupt>
  1e:	0b c0       	rjmp	.+22     	; 0x36 <__bad_interrupt>
  20:	0a c0       	rjmp	.+20     	; 0x36 <__bad_interrupt>
  22:	09 c0       	rjmp	.+18     	; 0x36 <__bad_interrupt>
  24:	08 c0       	rjmp	.+16     	; 0x36 <__bad_interrupt>

00000026 <__ctors_end>:
  26:	11 24       	eor	r1, r1
  28:	1f be       	out	0x3f, r1	; 63
  2a:	cf e5       	ldi	r28, 0x5F	; 95
  2c:	d4 e0       	ldi	r29, 0x04	; 4
  2e:	de bf       	out	0x3e, r29	; 62
  30:	cd bf       	out	0x3d, r28	; 61
  32:	02 d0       	rcall	.+4      	; 0x38 <main>
  34:	50 c0       	rjmp	.+160    	; 0xd6 <_exit>

00000036 <__bad_interrupt>:
  36:	e4 cf       	rjmp	.-56     	; 0x0 <__vectors>

00000038 <main>:
  38:	80 e0       	ldi	r24, 0x00	; 0
  3a:	61 e0       	ldi	r22, 0x01	; 1
  3c:	70 e0       	ldi	r23, 0x00	; 0
  3e:	40 e0       	ldi	r20, 0x00	; 0
  40:	50 e0       	ldi	r21, 0x00	; 0
  42:	23 e0       	ldi	r18, 0x03	; 3
  44:	05 d0       	rcall	.+10     	; 0x50 <_Z9setup_spihiih>
  46:	80 ef       	ldi	r24, 0xF0	; 240
  48:	41 d0       	rcall	.+130    	; 0xcc <_Z8send_spih>
  4a:	80 e0       	ldi	r24, 0x00	; 0
  4c:	3f d0       	rcall	.+126    	; 0xcc <_Z8send_spih>
  4e:	f4 cf       	rjmp	.-24     	; 0x38 <main>

00000050 <_Z9setup_spihiih>:
  50:	fb 01       	movw	r30, r22
  52:	20 3f       	cpi	r18, 0xF0	; 240
  54:	29 f4       	brne	.+10     	; 0x60 <_Z9setup_spihiih+0x10>
  56:	bb 98       	cbi	0x17, 3	; 23
  58:	bc 9a       	sbi	0x17, 4	; 23
  5a:	ba 98       	cbi	0x17, 2	; 23
  5c:	bd 98       	cbi	0x17, 5	; 23
  5e:	05 c0       	rjmp	.+10     	; 0x6a <_Z9setup_spihiih+0x1a>
  60:	bb 9a       	sbi	0x17, 3	; 23
  62:	bc 98       	cbi	0x17, 4	; 23
  64:	bd 9a       	sbi	0x17, 5	; 23
  66:	ba 9a       	sbi	0x17, 2	; 23
  68:	c2 9a       	sbi	0x18, 2	; 24
  6a:	45 2b       	or	r20, r21
  6c:	11 f4       	brne	.+4      	; 0x72 <_Z9setup_spihiih+0x22>
  6e:	50 e4       	ldi	r21, 0x40	; 64
  70:	01 c0       	rjmp	.+2      	; 0x74 <_Z9setup_spihiih+0x24>
  72:	50 ec       	ldi	r21, 0xC0	; 192
  74:	20 3f       	cpi	r18, 0xF0	; 240
  76:	11 f4       	brne	.+4      	; 0x7c <_Z9setup_spihiih+0x2c>
  78:	40 e0       	ldi	r20, 0x00	; 0
  7a:	01 c0       	rjmp	.+2      	; 0x7e <_Z9setup_spihiih+0x2e>
  7c:	40 e1       	ldi	r20, 0x10	; 16
  7e:	68 2f       	mov	r22, r24
  80:	70 e0       	ldi	r23, 0x00	; 0
  82:	81 fd       	sbrc	r24, 1
  84:	02 c0       	rjmp	.+4      	; 0x8a <_Z9setup_spihiih+0x3a>
  86:	30 e0       	ldi	r19, 0x00	; 0
  88:	01 c0       	rjmp	.+2      	; 0x8c <_Z9setup_spihiih+0x3c>
  8a:	38 e0       	ldi	r19, 0x08	; 8
  8c:	61 70       	andi	r22, 0x01	; 1
  8e:	70 70       	andi	r23, 0x00	; 0
  90:	66 0f       	add	r22, r22
  92:	77 1f       	adc	r23, r23
  94:	66 0f       	add	r22, r22
  96:	77 1f       	adc	r23, r23
  98:	75 e0       	ldi	r23, 0x05	; 5
  9a:	ee 0f       	add	r30, r30
  9c:	ff 1f       	adc	r31, r31
  9e:	7a 95       	dec	r23
  a0:	e1 f7       	brne	.-8      	; 0x9a <_Z9setup_spihiih+0x4a>
  a2:	86 2f       	mov	r24, r22
  a4:	8e 2b       	or	r24, r30
  a6:	92 2f       	mov	r25, r18
  a8:	92 70       	andi	r25, 0x02	; 2
  aa:	89 2b       	or	r24, r25
  ac:	92 2f       	mov	r25, r18
  ae:	91 70       	andi	r25, 0x01	; 1
  b0:	89 2b       	or	r24, r25
  b2:	85 2b       	or	r24, r21
  b4:	84 2b       	or	r24, r20
  b6:	83 2b       	or	r24, r19
  b8:	8d b9       	out	0x0d, r24	; 13
  ba:	82 2f       	mov	r24, r18
  bc:	90 e0       	ldi	r25, 0x00	; 0
  be:	96 95       	lsr	r25
  c0:	87 95       	ror	r24
  c2:	96 95       	lsr	r25
  c4:	87 95       	ror	r24
  c6:	81 70       	andi	r24, 0x01	; 1
  c8:	8e b9       	out	0x0e, r24	; 14
  ca:	08 95       	ret

000000cc <_Z8send_spih>:
  cc:	8f b9       	out	0x0f, r24	; 15
  ce:	77 9b       	sbis	0x0e, 7	; 14
  d0:	fe cf       	rjmp	.-4      	; 0xce <_Z8send_spih+0x2>
  d2:	8f b1       	in	r24, 0x0f	; 15
  d4:	08 95       	ret

000000d6 <_exit>:
  d6:	f8 94       	cli

000000d8 <__stop_program>:
  d8:	ff cf       	rjmp	.-2      	; 0xd8 <__stop_program>
