
CanHacker.elf:     file format elf32-avr

Sections:
Idx Name          Size      VMA       LMA       File off  Algn
  0 .text         0000047a  00000000  00000000  00000094  2**1
                  CONTENTS, ALLOC, LOAD, READONLY, CODE
  1 .data         0000001e  00800060  0000047a  0000050e  2**0
                  CONTENTS, ALLOC, LOAD, DATA
  2 .bss          00000039  0080007e  0080007e  0000052c  2**0
                  ALLOC

Disassembly of section .text:

00000000 <__vectors>:
   0:	12 c0       	rjmp	.+36     	; 0x26 <__ctors_end>
   2:	2c c0       	rjmp	.+88     	; 0x5c <__bad_interrupt>
   4:	2b c0       	rjmp	.+86     	; 0x5c <__bad_interrupt>
   6:	2a c0       	rjmp	.+84     	; 0x5c <__bad_interrupt>
   8:	29 c0       	rjmp	.+82     	; 0x5c <__bad_interrupt>
   a:	28 c0       	rjmp	.+80     	; 0x5c <__bad_interrupt>
   c:	27 c0       	rjmp	.+78     	; 0x5c <__bad_interrupt>
   e:	26 c0       	rjmp	.+76     	; 0x5c <__bad_interrupt>
  10:	25 c0       	rjmp	.+74     	; 0x5c <__bad_interrupt>
  12:	24 c0       	rjmp	.+72     	; 0x5c <__bad_interrupt>
  14:	23 c0       	rjmp	.+70     	; 0x5c <__bad_interrupt>
  16:	68 c1       	rjmp	.+720    	; 0x2e8 <__vector_11>
  18:	a9 c1       	rjmp	.+850    	; 0x36c <__vector_12>
  1a:	20 c0       	rjmp	.+64     	; 0x5c <__bad_interrupt>
  1c:	1f c0       	rjmp	.+62     	; 0x5c <__bad_interrupt>
  1e:	1e c0       	rjmp	.+60     	; 0x5c <__bad_interrupt>
  20:	1d c0       	rjmp	.+58     	; 0x5c <__bad_interrupt>
  22:	1c c0       	rjmp	.+56     	; 0x5c <__bad_interrupt>
  24:	1b c0       	rjmp	.+54     	; 0x5c <__bad_interrupt>

00000026 <__ctors_end>:
  26:	11 24       	eor	r1, r1
  28:	1f be       	out	0x3f, r1	; 63
  2a:	cf e5       	ldi	r28, 0x5F	; 95
  2c:	d4 e0       	ldi	r29, 0x04	; 4
  2e:	de bf       	out	0x3e, r29	; 62
  30:	cd bf       	out	0x3d, r28	; 61

00000032 <__do_copy_data>:
  32:	10 e0       	ldi	r17, 0x00	; 0
  34:	a0 e6       	ldi	r26, 0x60	; 96
  36:	b0 e0       	ldi	r27, 0x00	; 0
  38:	ea e7       	ldi	r30, 0x7A	; 122
  3a:	f4 e0       	ldi	r31, 0x04	; 4
  3c:	02 c0       	rjmp	.+4      	; 0x42 <.do_copy_data_start>

0000003e <.do_copy_data_loop>:
  3e:	05 90       	lpm	r0, Z+
  40:	0d 92       	st	X+, r0

00000042 <.do_copy_data_start>:
  42:	ae 37       	cpi	r26, 0x7E	; 126
  44:	b1 07       	cpc	r27, r17
  46:	d9 f7       	brne	.-10     	; 0x3e <.do_copy_data_loop>

00000048 <__do_clear_bss>:
  48:	10 e0       	ldi	r17, 0x00	; 0
  4a:	ae e7       	ldi	r26, 0x7E	; 126
  4c:	b0 e0       	ldi	r27, 0x00	; 0
  4e:	01 c0       	rjmp	.+2      	; 0x52 <.do_clear_bss_start>

00000050 <.do_clear_bss_loop>:
  50:	1d 92       	st	X+, r1

00000052 <.do_clear_bss_start>:
  52:	a7 3b       	cpi	r26, 0xB7	; 183
  54:	b1 07       	cpc	r27, r17
  56:	e1 f7       	brne	.-8      	; 0x50 <.do_clear_bss_loop>
  58:	02 d0       	rcall	.+4      	; 0x5e <main>
  5a:	0d c2       	rjmp	.+1050   	; 0x476 <_exit>

0000005c <__bad_interrupt>:
  5c:	d1 cf       	rjmp	.-94     	; 0x0 <__vectors>

0000005e <main>:
  5e:	1f 93       	push	r17
  60:	78 94       	sei
  62:	9a d0       	rcall	.+308    	; 0x198 <_Z15serialAvailablev>
  64:	62 e1       	ldi	r22, 0x12	; 18
  66:	70 e0       	ldi	r23, 0x00	; 0
  68:	99 d0       	rcall	.+306    	; 0x19c <_Z10serialInithj>
  6a:	96 d0       	rcall	.+300    	; 0x198 <_Z15serialAvailablev>
  6c:	60 e6       	ldi	r22, 0x60	; 96
  6e:	70 e0       	ldi	r23, 0x00	; 0
  70:	25 d1       	rcall	.+586    	; 0x2bc <_Z17serialWriteStringhPKc>
  72:	92 d0       	rcall	.+292    	; 0x198 <_Z15serialAvailablev>
  74:	18 2f       	mov	r17, r24
  76:	90 d0       	rcall	.+288    	; 0x198 <_Z15serialAvailablev>
  78:	68 2f       	mov	r22, r24
  7a:	60 5d       	subi	r22, 0xD0	; 208
  7c:	81 2f       	mov	r24, r17
  7e:	f1 d0       	rcall	.+482    	; 0x262 <_Z11serialWritehh>
  80:	8b d0       	rcall	.+278    	; 0x198 <_Z15serialAvailablev>
  82:	60 e7       	ldi	r22, 0x70	; 112
  84:	70 e0       	ldi	r23, 0x00	; 0
  86:	1a d1       	rcall	.+564    	; 0x2bc <_Z17serialWriteStringhPKc>
  88:	80 e0       	ldi	r24, 0x00	; 0
  8a:	61 e0       	ldi	r22, 0x01	; 1
  8c:	70 e0       	ldi	r23, 0x00	; 0
  8e:	40 e0       	ldi	r20, 0x00	; 0
  90:	50 e0       	ldi	r21, 0x00	; 0
  92:	23 e0       	ldi	r18, 0x03	; 3
  94:	ad d1       	rcall	.+858    	; 0x3f0 <_Z9setup_spihiih>
  96:	84 e0       	ldi	r24, 0x04	; 4
  98:	66 d0       	rcall	.+204    	; 0x166 <mcp2515_setCanSpeed>
  9a:	80 e0       	ldi	r24, 0x00	; 0
  9c:	61 e0       	ldi	r22, 0x01	; 1
  9e:	70 e0       	ldi	r23, 0x00	; 0
  a0:	40 e0       	ldi	r20, 0x00	; 0
  a2:	50 e0       	ldi	r21, 0x00	; 0
  a4:	23 e0       	ldi	r18, 0x03	; 3
  a6:	a4 d1       	rcall	.+840    	; 0x3f0 <_Z9setup_spihiih>
  a8:	80 e0       	ldi	r24, 0x00	; 0
  aa:	e0 d1       	rcall	.+960    	; 0x46c <_Z8send_spih>
  ac:	81 e0       	ldi	r24, 0x01	; 1
  ae:	de d1       	rcall	.+956    	; 0x46c <_Z8send_spih>
  b0:	f4 cf       	rjmp	.-24     	; 0x9a <main+0x3c>

000000b2 <internal_spiChipSelect>:
  b2:	88 23       	and	r24, r24
  b4:	11 f4       	brne	.+4      	; 0xba <internal_spiChipSelect+0x8>
  b6:	c2 9a       	sbi	0x18, 2	; 24
  b8:	01 c0       	rjmp	.+2      	; 0xbc <internal_spiChipSelect+0xa>
  ba:	c2 98       	cbi	0x18, 2	; 24
  bc:	ba 9a       	sbi	0x17, 2	; 23
  be:	08 95       	ret

000000c0 <mcp2515_bitModify>:
  c0:	ff 92       	push	r15
  c2:	0f 93       	push	r16
  c4:	1f 93       	push	r17
  c6:	18 2f       	mov	r17, r24
  c8:	f6 2e       	mov	r15, r22
  ca:	04 2f       	mov	r16, r20
  cc:	81 e0       	ldi	r24, 0x01	; 1
  ce:	f1 df       	rcall	.-30     	; 0xb2 <internal_spiChipSelect>
  d0:	85 e0       	ldi	r24, 0x05	; 5
  d2:	cc d1       	rcall	.+920    	; 0x46c <_Z8send_spih>
  d4:	81 2f       	mov	r24, r17
  d6:	ca d1       	rcall	.+916    	; 0x46c <_Z8send_spih>
  d8:	80 2f       	mov	r24, r16
  da:	c8 d1       	rcall	.+912    	; 0x46c <_Z8send_spih>
  dc:	8f 2d       	mov	r24, r15
  de:	c6 d1       	rcall	.+908    	; 0x46c <_Z8send_spih>
  e0:	80 e0       	ldi	r24, 0x00	; 0
  e2:	e7 df       	rcall	.-50     	; 0xb2 <internal_spiChipSelect>
  e4:	1f 91       	pop	r17
  e6:	0f 91       	pop	r16
  e8:	ff 90       	pop	r15
  ea:	08 95       	ret

000000ec <mcp2515_writeRegister>:
  ec:	0f 93       	push	r16
  ee:	1f 93       	push	r17
  f0:	18 2f       	mov	r17, r24
  f2:	06 2f       	mov	r16, r22
  f4:	81 e0       	ldi	r24, 0x01	; 1
  f6:	dd df       	rcall	.-70     	; 0xb2 <internal_spiChipSelect>
  f8:	82 e0       	ldi	r24, 0x02	; 2
  fa:	b8 d1       	rcall	.+880    	; 0x46c <_Z8send_spih>
  fc:	81 2f       	mov	r24, r17
  fe:	b6 d1       	rcall	.+876    	; 0x46c <_Z8send_spih>
 100:	80 2f       	mov	r24, r16
 102:	b4 d1       	rcall	.+872    	; 0x46c <_Z8send_spih>
 104:	80 e0       	ldi	r24, 0x00	; 0
 106:	d5 df       	rcall	.-86     	; 0xb2 <internal_spiChipSelect>
 108:	1f 91       	pop	r17
 10a:	0f 91       	pop	r16
 10c:	08 95       	ret

0000010e <mcp2515_readRegister>:
 10e:	1f 93       	push	r17
 110:	18 2f       	mov	r17, r24
 112:	81 e0       	ldi	r24, 0x01	; 1
 114:	ce df       	rcall	.-100    	; 0xb2 <internal_spiChipSelect>
 116:	83 e0       	ldi	r24, 0x03	; 3
 118:	a9 d1       	rcall	.+850    	; 0x46c <_Z8send_spih>
 11a:	81 2f       	mov	r24, r17
 11c:	a7 d1       	rcall	.+846    	; 0x46c <_Z8send_spih>
 11e:	80 e0       	ldi	r24, 0x00	; 0
 120:	a5 d1       	rcall	.+842    	; 0x46c <_Z8send_spih>
 122:	18 2f       	mov	r17, r24
 124:	80 e0       	ldi	r24, 0x00	; 0
 126:	c5 df       	rcall	.-118    	; 0xb2 <internal_spiChipSelect>
 128:	81 2f       	mov	r24, r17
 12a:	1f 91       	pop	r17
 12c:	08 95       	ret

0000012e <mcp2515_setBitTiming>:
 12e:	ff 92       	push	r15
 130:	0f 93       	push	r16
 132:	1f 93       	push	r17
 134:	18 2f       	mov	r17, r24
 136:	06 2f       	mov	r16, r22
 138:	f4 2e       	mov	r15, r20
 13a:	8e e0       	ldi	r24, 0x0E	; 14
 13c:	e8 df       	rcall	.-48     	; 0x10e <mcp2515_readRegister>
 13e:	80 7e       	andi	r24, 0xE0	; 224
 140:	80 38       	cpi	r24, 0x80	; 128
 142:	11 f0       	breq	.+4      	; 0x148 <mcp2515_setBitTiming+0x1a>
 144:	80 e0       	ldi	r24, 0x00	; 0
 146:	0b c0       	rjmp	.+22     	; 0x15e <mcp2515_setBitTiming+0x30>
 148:	8a e2       	ldi	r24, 0x2A	; 42
 14a:	61 2f       	mov	r22, r17
 14c:	cf df       	rcall	.-98     	; 0xec <mcp2515_writeRegister>
 14e:	89 e2       	ldi	r24, 0x29	; 41
 150:	60 2f       	mov	r22, r16
 152:	cc df       	rcall	.-104    	; 0xec <mcp2515_writeRegister>
 154:	88 e2       	ldi	r24, 0x28	; 40
 156:	6f 2d       	mov	r22, r15
 158:	47 e0       	ldi	r20, 0x07	; 7
 15a:	b2 df       	rcall	.-156    	; 0xc0 <mcp2515_bitModify>
 15c:	81 e0       	ldi	r24, 0x01	; 1
 15e:	1f 91       	pop	r17
 160:	0f 91       	pop	r16
 162:	ff 90       	pop	r15
 164:	08 95       	ret

00000166 <mcp2515_setCanSpeed>:
 166:	82 30       	cpi	r24, 0x02	; 2
 168:	79 f0       	breq	.+30     	; 0x188 <mcp2515_setCanSpeed+0x22>
 16a:	83 30       	cpi	r24, 0x03	; 3
 16c:	18 f4       	brcc	.+6      	; 0x174 <mcp2515_setCanSpeed+0xe>
 16e:	81 30       	cpi	r24, 0x01	; 1
 170:	79 f4       	brne	.+30     	; 0x190 <mcp2515_setCanSpeed+0x2a>
 172:	0c c0       	rjmp	.+24     	; 0x18c <mcp2515_setCanSpeed+0x26>
 174:	83 30       	cpi	r24, 0x03	; 3
 176:	19 f0       	breq	.+6      	; 0x17e <mcp2515_setCanSpeed+0x18>
 178:	84 30       	cpi	r24, 0x04	; 4
 17a:	51 f4       	brne	.+20     	; 0x190 <mcp2515_setCanSpeed+0x2a>
 17c:	02 c0       	rjmp	.+4      	; 0x182 <mcp2515_setCanSpeed+0x1c>
 17e:	81 e0       	ldi	r24, 0x01	; 1
 180:	01 c0       	rjmp	.+2      	; 0x184 <mcp2515_setCanSpeed+0x1e>
 182:	80 e0       	ldi	r24, 0x00	; 0
 184:	6a eb       	ldi	r22, 0xBA	; 186
 186:	06 c0       	rjmp	.+12     	; 0x194 <mcp2515_setCanSpeed+0x2e>
 188:	83 e0       	ldi	r24, 0x03	; 3
 18a:	fc cf       	rjmp	.-8      	; 0x184 <mcp2515_setCanSpeed+0x1e>
 18c:	87 e0       	ldi	r24, 0x07	; 7
 18e:	01 c0       	rjmp	.+2      	; 0x192 <mcp2515_setCanSpeed+0x2c>
 190:	8f e0       	ldi	r24, 0x0F	; 15
 192:	6f eb       	ldi	r22, 0xBF	; 191
 194:	47 e0       	ldi	r20, 0x07	; 7
 196:	cb cf       	rjmp	.-106    	; 0x12e <mcp2515_setBitTiming>

00000198 <_Z15serialAvailablev>:
 198:	81 e0       	ldi	r24, 0x01	; 1
 19a:	08 95       	ret

0000019c <_Z10serialInithj>:
 19c:	88 23       	and	r24, r24
 19e:	e1 f4       	brne	.+56     	; 0x1d8 <_Z10serialInithj+0x3c>
 1a0:	10 92 b6 00 	sts	0x00B6, r1
 1a4:	10 92 b5 00 	sts	0x00B5, r1
 1a8:	10 92 94 00 	sts	0x0094, r1
 1ac:	10 92 93 00 	sts	0x0093, r1
 1b0:	10 92 7f 00 	sts	0x007F, r1
 1b4:	10 92 7e 00 	sts	0x007E, r1
 1b8:	10 92 81 00 	sts	0x0081, r1
 1bc:	10 92 80 00 	sts	0x0080, r1
 1c0:	81 e0       	ldi	r24, 0x01	; 1
 1c2:	80 93 92 00 	sts	0x0092, r24
 1c6:	86 e0       	ldi	r24, 0x06	; 6
 1c8:	80 bd       	out	0x20, r24	; 32
 1ca:	70 bd       	out	0x20, r23	; 32
 1cc:	69 b9       	out	0x09, r22	; 9
 1ce:	80 e8       	ldi	r24, 0x80	; 128
 1d0:	8a b9       	out	0x0a, r24	; 10
 1d2:	8a b1       	in	r24, 0x0a	; 10
 1d4:	88 61       	ori	r24, 0x18	; 24
 1d6:	8a b9       	out	0x0a, r24	; 10
 1d8:	08 95       	ret

000001da <_Z18serialRxBufferFullh>:
 1da:	88 23       	and	r24, r24
 1dc:	11 f0       	breq	.+4      	; 0x1e2 <_Z18serialRxBufferFullh+0x8>
 1de:	80 e0       	ldi	r24, 0x00	; 0
 1e0:	08 95       	ret
 1e2:	80 91 93 00 	lds	r24, 0x0093
 1e6:	90 91 94 00 	lds	r25, 0x0094
 1ea:	20 91 b5 00 	lds	r18, 0x00B5
 1ee:	30 91 b6 00 	lds	r19, 0x00B6
 1f2:	01 96       	adiw	r24, 0x01	; 1
 1f4:	82 17       	cp	r24, r18
 1f6:	93 07       	cpc	r25, r19
 1f8:	79 f0       	breq	.+30     	; 0x218 <_Z18serialRxBufferFullh+0x3e>
 1fa:	80 91 b5 00 	lds	r24, 0x00B5
 1fe:	90 91 b6 00 	lds	r25, 0x00B6
 202:	89 2b       	or	r24, r25
 204:	11 f0       	breq	.+4      	; 0x20a <_Z18serialRxBufferFullh+0x30>
 206:	20 e0       	ldi	r18, 0x00	; 0
 208:	08 c0       	rjmp	.+16     	; 0x21a <_Z18serialRxBufferFullh+0x40>
 20a:	80 91 93 00 	lds	r24, 0x0093
 20e:	90 91 94 00 	lds	r25, 0x0094
 212:	20 e0       	ldi	r18, 0x00	; 0
 214:	4f 97       	sbiw	r24, 0x1f	; 31
 216:	09 f4       	brne	.+2      	; 0x21a <_Z18serialRxBufferFullh+0x40>
 218:	21 e0       	ldi	r18, 0x01	; 1
 21a:	82 2f       	mov	r24, r18
 21c:	08 95       	ret

0000021e <_Z18serialTxBufferFullh>:
 21e:	88 23       	and	r24, r24
 220:	11 f0       	breq	.+4      	; 0x226 <_Z18serialTxBufferFullh+0x8>
 222:	80 e0       	ldi	r24, 0x00	; 0
 224:	08 95       	ret
 226:	80 91 80 00 	lds	r24, 0x0080
 22a:	90 91 81 00 	lds	r25, 0x0081
 22e:	20 91 7e 00 	lds	r18, 0x007E
 232:	30 91 7f 00 	lds	r19, 0x007F
 236:	01 96       	adiw	r24, 0x01	; 1
 238:	82 17       	cp	r24, r18
 23a:	93 07       	cpc	r25, r19
 23c:	79 f0       	breq	.+30     	; 0x25c <_Z18serialTxBufferFullh+0x3e>
 23e:	80 91 7e 00 	lds	r24, 0x007E
 242:	90 91 7f 00 	lds	r25, 0x007F
 246:	89 2b       	or	r24, r25
 248:	11 f0       	breq	.+4      	; 0x24e <_Z18serialTxBufferFullh+0x30>
 24a:	20 e0       	ldi	r18, 0x00	; 0
 24c:	08 c0       	rjmp	.+16     	; 0x25e <_Z18serialTxBufferFullh+0x40>
 24e:	80 91 80 00 	lds	r24, 0x0080
 252:	90 91 81 00 	lds	r25, 0x0081
 256:	20 e0       	ldi	r18, 0x00	; 0
 258:	0f 97       	sbiw	r24, 0x0f	; 15
 25a:	09 f4       	brne	.+2      	; 0x25e <_Z18serialTxBufferFullh+0x40>
 25c:	21 e0       	ldi	r18, 0x01	; 1
 25e:	82 2f       	mov	r24, r18
 260:	08 95       	ret

00000262 <_Z11serialWritehh>:
 262:	1f 93       	push	r17
 264:	16 2f       	mov	r17, r22
 266:	88 23       	and	r24, r24
 268:	39 f5       	brne	.+78     	; 0x2b8 <_Z11serialWritehh+0x56>
 26a:	80 e0       	ldi	r24, 0x00	; 0
 26c:	d8 df       	rcall	.-80     	; 0x21e <_Z18serialTxBufferFullh>
 26e:	88 23       	and	r24, r24
 270:	e1 f7       	brne	.-8      	; 0x26a <_Z11serialWritehh+0x8>
 272:	e0 91 80 00 	lds	r30, 0x0080
 276:	f0 91 81 00 	lds	r31, 0x0081
 27a:	ee 57       	subi	r30, 0x7E	; 126
 27c:	ff 4f       	sbci	r31, 0xFF	; 255
 27e:	10 83       	st	Z, r17
 280:	80 91 80 00 	lds	r24, 0x0080
 284:	90 91 81 00 	lds	r25, 0x0081
 288:	0f 97       	sbiw	r24, 0x0f	; 15
 28a:	50 f4       	brcc	.+20     	; 0x2a0 <_Z11serialWritehh+0x3e>
 28c:	80 91 80 00 	lds	r24, 0x0080
 290:	90 91 81 00 	lds	r25, 0x0081
 294:	01 96       	adiw	r24, 0x01	; 1
 296:	90 93 81 00 	sts	0x0081, r25
 29a:	80 93 80 00 	sts	0x0080, r24
 29e:	04 c0       	rjmp	.+8      	; 0x2a8 <_Z11serialWritehh+0x46>
 2a0:	10 92 81 00 	sts	0x0081, r1
 2a4:	10 92 80 00 	sts	0x0080, r1
 2a8:	80 91 92 00 	lds	r24, 0x0092
 2ac:	88 23       	and	r24, r24
 2ae:	21 f0       	breq	.+8      	; 0x2b8 <_Z11serialWritehh+0x56>
 2b0:	10 92 92 00 	sts	0x0092, r1
 2b4:	55 9a       	sbi	0x0a, 5	; 10
 2b6:	5d 9a       	sbi	0x0b, 5	; 11
 2b8:	1f 91       	pop	r17
 2ba:	08 95       	ret

000002bc <_Z17serialWriteStringhPKc>:
 2bc:	cf 93       	push	r28
 2be:	df 93       	push	r29
 2c0:	eb 01       	movw	r28, r22
 2c2:	88 23       	and	r24, r24
 2c4:	71 f4       	brne	.+28     	; 0x2e2 <_Z17serialWriteStringhPKc+0x26>
 2c6:	61 15       	cp	r22, r1
 2c8:	71 05       	cpc	r23, r1
 2ca:	41 f0       	breq	.+16     	; 0x2dc <_Z17serialWriteStringhPKc+0x20>
 2cc:	03 c0       	rjmp	.+6      	; 0x2d4 <_Z17serialWriteStringhPKc+0x18>
 2ce:	21 96       	adiw	r28, 0x01	; 1
 2d0:	80 e0       	ldi	r24, 0x00	; 0
 2d2:	c7 df       	rcall	.-114    	; 0x262 <_Z11serialWritehh>
 2d4:	68 81       	ld	r22, Y
 2d6:	66 23       	and	r22, r22
 2d8:	d1 f7       	brne	.-12     	; 0x2ce <_Z17serialWriteStringhPKc+0x12>
 2da:	03 c0       	rjmp	.+6      	; 0x2e2 <_Z17serialWriteStringhPKc+0x26>
 2dc:	c8 e7       	ldi	r28, 0x78	; 120
 2de:	d0 e0       	ldi	r29, 0x00	; 0
 2e0:	f9 cf       	rjmp	.-14     	; 0x2d4 <_Z17serialWriteStringhPKc+0x18>
 2e2:	df 91       	pop	r29
 2e4:	cf 91       	pop	r28
 2e6:	08 95       	ret

000002e8 <__vector_11>:
 2e8:	1f 92       	push	r1
 2ea:	0f 92       	push	r0
 2ec:	0f b6       	in	r0, 0x3f	; 63
 2ee:	0f 92       	push	r0
 2f0:	11 24       	eor	r1, r1
 2f2:	2f 93       	push	r18
 2f4:	3f 93       	push	r19
 2f6:	4f 93       	push	r20
 2f8:	5f 93       	push	r21
 2fa:	6f 93       	push	r22
 2fc:	7f 93       	push	r23
 2fe:	8f 93       	push	r24
 300:	9f 93       	push	r25
 302:	af 93       	push	r26
 304:	bf 93       	push	r27
 306:	ef 93       	push	r30
 308:	ff 93       	push	r31
 30a:	e0 91 93 00 	lds	r30, 0x0093
 30e:	f0 91 94 00 	lds	r31, 0x0094
 312:	8c b1       	in	r24, 0x0c	; 12
 314:	eb 56       	subi	r30, 0x6B	; 107
 316:	ff 4f       	sbci	r31, 0xFF	; 255
 318:	80 83       	st	Z, r24
 31a:	80 e0       	ldi	r24, 0x00	; 0
 31c:	5e df       	rcall	.-324    	; 0x1da <_Z18serialRxBufferFullh>
 31e:	88 23       	and	r24, r24
 320:	a1 f4       	brne	.+40     	; 0x34a <__vector_11+0x62>
 322:	80 91 93 00 	lds	r24, 0x0093
 326:	90 91 94 00 	lds	r25, 0x0094
 32a:	4f 97       	sbiw	r24, 0x1f	; 31
 32c:	50 f4       	brcc	.+20     	; 0x342 <__vector_11+0x5a>
 32e:	80 91 93 00 	lds	r24, 0x0093
 332:	90 91 94 00 	lds	r25, 0x0094
 336:	01 96       	adiw	r24, 0x01	; 1
 338:	90 93 94 00 	sts	0x0094, r25
 33c:	80 93 93 00 	sts	0x0093, r24
 340:	04 c0       	rjmp	.+8      	; 0x34a <__vector_11+0x62>
 342:	10 92 94 00 	sts	0x0094, r1
 346:	10 92 93 00 	sts	0x0093, r1
 34a:	ff 91       	pop	r31
 34c:	ef 91       	pop	r30
 34e:	bf 91       	pop	r27
 350:	af 91       	pop	r26
 352:	9f 91       	pop	r25
 354:	8f 91       	pop	r24
 356:	7f 91       	pop	r23
 358:	6f 91       	pop	r22
 35a:	5f 91       	pop	r21
 35c:	4f 91       	pop	r20
 35e:	3f 91       	pop	r19
 360:	2f 91       	pop	r18
 362:	0f 90       	pop	r0
 364:	0f be       	out	0x3f, r0	; 63
 366:	0f 90       	pop	r0
 368:	1f 90       	pop	r1
 36a:	18 95       	reti

0000036c <__vector_12>:
 36c:	1f 92       	push	r1
 36e:	0f 92       	push	r0
 370:	0f b6       	in	r0, 0x3f	; 63
 372:	0f 92       	push	r0
 374:	11 24       	eor	r1, r1
 376:	2f 93       	push	r18
 378:	3f 93       	push	r19
 37a:	8f 93       	push	r24
 37c:	9f 93       	push	r25
 37e:	ef 93       	push	r30
 380:	ff 93       	push	r31
 382:	20 91 7e 00 	lds	r18, 0x007E
 386:	30 91 7f 00 	lds	r19, 0x007F
 38a:	80 91 80 00 	lds	r24, 0x0080
 38e:	90 91 81 00 	lds	r25, 0x0081
 392:	28 17       	cp	r18, r24
 394:	39 07       	cpc	r19, r25
 396:	e9 f0       	breq	.+58     	; 0x3d2 <__vector_12+0x66>
 398:	e0 91 7e 00 	lds	r30, 0x007E
 39c:	f0 91 7f 00 	lds	r31, 0x007F
 3a0:	ee 57       	subi	r30, 0x7E	; 126
 3a2:	ff 4f       	sbci	r31, 0xFF	; 255
 3a4:	80 81       	ld	r24, Z
 3a6:	8c b9       	out	0x0c, r24	; 12
 3a8:	80 91 7e 00 	lds	r24, 0x007E
 3ac:	90 91 7f 00 	lds	r25, 0x007F
 3b0:	0f 97       	sbiw	r24, 0x0f	; 15
 3b2:	50 f4       	brcc	.+20     	; 0x3c8 <__vector_12+0x5c>
 3b4:	80 91 7e 00 	lds	r24, 0x007E
 3b8:	90 91 7f 00 	lds	r25, 0x007F
 3bc:	01 96       	adiw	r24, 0x01	; 1
 3be:	90 93 7f 00 	sts	0x007F, r25
 3c2:	80 93 7e 00 	sts	0x007E, r24
 3c6:	09 c0       	rjmp	.+18     	; 0x3da <__vector_12+0x6e>
 3c8:	10 92 7f 00 	sts	0x007F, r1
 3cc:	10 92 7e 00 	sts	0x007E, r1
 3d0:	04 c0       	rjmp	.+8      	; 0x3da <__vector_12+0x6e>
 3d2:	81 e0       	ldi	r24, 0x01	; 1
 3d4:	80 93 92 00 	sts	0x0092, r24
 3d8:	55 98       	cbi	0x0a, 5	; 10
 3da:	ff 91       	pop	r31
 3dc:	ef 91       	pop	r30
 3de:	9f 91       	pop	r25
 3e0:	8f 91       	pop	r24
 3e2:	3f 91       	pop	r19
 3e4:	2f 91       	pop	r18
 3e6:	0f 90       	pop	r0
 3e8:	0f be       	out	0x3f, r0	; 63
 3ea:	0f 90       	pop	r0
 3ec:	1f 90       	pop	r1
 3ee:	18 95       	reti

000003f0 <_Z9setup_spihiih>:
 3f0:	fb 01       	movw	r30, r22
 3f2:	20 3f       	cpi	r18, 0xF0	; 240
 3f4:	29 f4       	brne	.+10     	; 0x400 <_Z9setup_spihiih+0x10>
 3f6:	bb 98       	cbi	0x17, 3	; 23
 3f8:	bc 9a       	sbi	0x17, 4	; 23
 3fa:	ba 98       	cbi	0x17, 2	; 23
 3fc:	bd 98       	cbi	0x17, 5	; 23
 3fe:	05 c0       	rjmp	.+10     	; 0x40a <_Z9setup_spihiih+0x1a>
 400:	bb 9a       	sbi	0x17, 3	; 23
 402:	bc 98       	cbi	0x17, 4	; 23
 404:	bd 9a       	sbi	0x17, 5	; 23
 406:	ba 9a       	sbi	0x17, 2	; 23
 408:	c2 9a       	sbi	0x18, 2	; 24
 40a:	45 2b       	or	r20, r21
 40c:	11 f4       	brne	.+4      	; 0x412 <_Z9setup_spihiih+0x22>
 40e:	50 e4       	ldi	r21, 0x40	; 64
 410:	01 c0       	rjmp	.+2      	; 0x414 <_Z9setup_spihiih+0x24>
 412:	50 ec       	ldi	r21, 0xC0	; 192
 414:	20 3f       	cpi	r18, 0xF0	; 240
 416:	11 f4       	brne	.+4      	; 0x41c <_Z9setup_spihiih+0x2c>
 418:	40 e0       	ldi	r20, 0x00	; 0
 41a:	01 c0       	rjmp	.+2      	; 0x41e <_Z9setup_spihiih+0x2e>
 41c:	40 e1       	ldi	r20, 0x10	; 16
 41e:	68 2f       	mov	r22, r24
 420:	70 e0       	ldi	r23, 0x00	; 0
 422:	81 fd       	sbrc	r24, 1
 424:	02 c0       	rjmp	.+4      	; 0x42a <_Z9setup_spihiih+0x3a>
 426:	30 e0       	ldi	r19, 0x00	; 0
 428:	01 c0       	rjmp	.+2      	; 0x42c <_Z9setup_spihiih+0x3c>
 42a:	38 e0       	ldi	r19, 0x08	; 8
 42c:	61 70       	andi	r22, 0x01	; 1
 42e:	70 70       	andi	r23, 0x00	; 0
 430:	66 0f       	add	r22, r22
 432:	77 1f       	adc	r23, r23
 434:	66 0f       	add	r22, r22
 436:	77 1f       	adc	r23, r23
 438:	75 e0       	ldi	r23, 0x05	; 5
 43a:	ee 0f       	add	r30, r30
 43c:	ff 1f       	adc	r31, r31
 43e:	7a 95       	dec	r23
 440:	e1 f7       	brne	.-8      	; 0x43a <_Z9setup_spihiih+0x4a>
 442:	86 2f       	mov	r24, r22
 444:	8e 2b       	or	r24, r30
 446:	92 2f       	mov	r25, r18
 448:	92 70       	andi	r25, 0x02	; 2
 44a:	89 2b       	or	r24, r25
 44c:	92 2f       	mov	r25, r18
 44e:	91 70       	andi	r25, 0x01	; 1
 450:	89 2b       	or	r24, r25
 452:	85 2b       	or	r24, r21
 454:	84 2b       	or	r24, r20
 456:	83 2b       	or	r24, r19
 458:	8d b9       	out	0x0d, r24	; 13
 45a:	82 2f       	mov	r24, r18
 45c:	90 e0       	ldi	r25, 0x00	; 0
 45e:	96 95       	lsr	r25
 460:	87 95       	ror	r24
 462:	96 95       	lsr	r25
 464:	87 95       	ror	r24
 466:	81 70       	andi	r24, 0x01	; 1
 468:	8e b9       	out	0x0e, r24	; 14
 46a:	08 95       	ret

0000046c <_Z8send_spih>:
 46c:	8f b9       	out	0x0f, r24	; 15
 46e:	77 9b       	sbis	0x0e, 7	; 14
 470:	fe cf       	rjmp	.-4      	; 0x46e <_Z8send_spih+0x2>
 472:	8f b1       	in	r24, 0x0f	; 15
 474:	08 95       	ret

00000476 <_exit>:
 476:	f8 94       	cli

00000478 <__stop_program>:
 478:	ff cf       	rjmp	.-2      	; 0x478 <__stop_program>
